; Function Attrs: nounwind sspstrong uwtable
define dso_local i64 @rb_mod_ancestors(i64 noundef %0) local_unnamed_addr #0 {
  %2 = tail call i64 @rb_ary_new() #19
  %3 = inttoptr i64 %0 to ptr
  %4 = load i64, ptr %3, align 8, !tbaa !35
  %5 = and i64 %4, 31
  %6 = icmp eq i64 %5, 3
  br i1 %6, label %7, label %RB_FL_TEST.exit.thread

7:                                                ; preds = %1
  %8 = icmp eq i64 %0, 0
  %9 = and i64 %0, 7
  %10 = icmp ne i64 %9, 0
  %11 = or i1 %8, %10
  %12 = and i64 %4, 32768
  %.not = icmp eq i64 %12, 0
  %or.cond22 = or i1 %11, %.not
  br i1 %or.cond22, label %RB_FL_TEST.exit.thread, label %13

13:                                               ; preds = %7
  %14 = tail call i64 @rb_refinement_module_get_refined_class(i64 noundef %0) #19
  br label %RB_FL_TEST.exit.thread

RB_FL_TEST.exit.thread:                           ; preds = %7, %13, %1
  %.0 = phi i64 [ %14, %13 ], [ 4, %1 ], [ 4, %7 ]
  %.not1723 = icmp eq i64 %0, 0
  %15 = icmp eq i64 %0, %.0
  %or.cond24 = select i1 %.not1723, i1 true, i1 %15
  br i1 %or.cond24, label %._crit_edge, label %.lr.ph

.lr.ph:                                           ; preds = %RB_FL_TEST.exit.thread, %27
  %.01625 = phi i64 [ %29, %27 ], [ %0, %RB_FL_TEST.exit.thread ]
  %16 = inttoptr i64 %.01625 to ptr
  %17 = getelementptr inbounds nuw i8, ptr %16, i64 112
  %18 = load i64, ptr %17, align 8, !tbaa !46
  %.not18 = icmp eq i64 %.01625, %18
  br i1 %.not18, label %19, label %27

19:                                               ; preds = %.lr.ph
  %20 = load i64, ptr %16, align 8, !tbaa !35
  %21 = and i64 %20, 31
  %22 = icmp eq i64 %21, 28
  br i1 %22, label %23, label %.sink.split

23:                                               ; preds = %19
  %24 = getelementptr inbounds nuw i8, ptr %16, i64 8
  %25 = load i64, ptr %24, align 8, !tbaa !42
  br label %.sink.split

.sink.split:                                      ; preds = %19, %23
  %.sink = phi i64 [ %25, %23 ], [ %.01625, %19 ]
  %26 = tail call i64 @rb_ary_push(i64 noundef %2, i64 noundef %.sink) #19
  br label %27

27:                                               ; preds = %.sink.split, %.lr.ph
  %28 = getelementptr inbounds nuw i8, ptr %16, i64 16
  %29 = load i64, ptr %28, align 8, !tbaa !34
  %.not17 = icmp eq i64 %29, 0
  %30 = icmp eq i64 %29, %.0
  %or.cond = select i1 %.not17, i1 true, i1 %30
  br i1 %or.cond, label %._crit_edge, label %.lr.ph, !llvm.loop !77

._crit_edge:                                      ; preds = %27, %RB_FL_TEST.exit.thread
  ret i64 %2
}